; Function Attrs: mustprogress uwtable
define dso_local noundef ptr @_ZNK16cmLocalGenerator23GetSourceFileWithOutputERKNSt7__cxx1112basic_stringIcSt11char_traitsIcESaIcEEE18cmSourceOutputKind(ptr noundef nonnull align 8 dereferenceable(824) %0, ptr noundef nonnull align 8 dereferenceable(32) %1, i32 noundef %2) local_unnamed_addr #3 align 2 {
  %4 = alloca i8, align 1
  %5 = tail call noundef zeroext i1 @_ZN5cmsys11SystemTools14FileIsFullPathERKNSt7__cxx1112basic_stringIcSt11char_traitsIcESaIcEEE(ptr noundef nonnull align 8 dereferenceable(32) %1)
  br i1 %5, label %8, label %6

6:                                                ; preds = %3
  %7 = call noundef ptr @_ZNK16cmLocalGenerator29LinearGetSourceFileWithOutputERKNSt7__cxx1112basic_stringIcSt11char_traitsIcESaIcEEE18cmSourceOutputKindRb(ptr noundef nonnull align 8 dereferenceable(824) %0, ptr noundef nonnull align 8 dereferenceable(32) %1, i32 noundef %2, ptr noundef nonnull align 1 dereferenceable(1) %4)
  br label %.critedge

8:                                                ; preds = %3
  %9 = getelementptr inbounds i8, ptr %0, i64 768
  %10 = tail call ptr @_ZNKSt10_HashtableINSt7__cxx1112basic_stringIcSt11char_traitsIcESaIcEEESt4pairIKS5_N16cmLocalGenerator11SourceEntryEESaISA_ENSt8__detail10_Select1stESt8equal_toIS5_ESt4hashIS5_ENSC_18_Mod_range_hashingENSC_20_Default_ranged_hashENSC_20_Prime_rehash_policyENSC_17_Hashtable_traitsILb1ELb0ELb1EEEE4findERS7_(ptr noundef nonnull align 8 dereferenceable(56) %9, ptr noundef nonnull align 8 dereferenceable(32) %1)
  %.not9 = icmp eq ptr %10, null
  br i1 %.not9, label %.critedge, label %11

11:                                               ; preds = %8
  %12 = getelementptr inbounds i8, ptr %10, i64 56
  %13 = load i8, ptr %12, align 8
  %14 = and i8 %13, 1
  %.not = icmp eq i8 %14, 0
  %15 = icmp eq i32 %2, 1
  %16 = or i1 %15, %.not
  br i1 %16, label %17, label %.critedge

17:                                               ; preds = %11
  %18 = getelementptr inbounds i8, ptr %10, i64 48
  %19 = load ptr, ptr %18, align 8
  br label %.critedge

.critedge:                                        ; preds = %11, %8, %17, %6
  %.0 = phi ptr [ %19, %17 ], [ %7, %6 ], [ null, %8 ], [ null, %11 ]
  ret ptr %.0
}